; Function Attrs: mustprogress nounwind uwtable
define internal void @_ZN4node4heap12_GLOBAL__N_118HeapSnapshotStreamD2Ev(ptr noundef nonnull align 8 dereferenceable(136) %this) unnamed_addr #3 align 2 {
entry:
  store ptr getelementptr inbounds ({ [30 x ptr], [20 x ptr], [8 x ptr] }, ptr @_ZTVN4node4heap12_GLOBAL__N_118HeapSnapshotStreamE, i64 0, i32 0, i64 2), ptr %this, align 8
  %add.ptr = getelementptr inbounds i8, ptr %this, i64 56
  store ptr getelementptr inbounds ({ [30 x ptr], [20 x ptr], [8 x ptr] }, ptr @_ZTVN4node4heap12_GLOBAL__N_118HeapSnapshotStreamE, i64 0, i32 1, i64 2), ptr %add.ptr, align 8
  %add.ptr2 = getelementptr inbounds i8, ptr %this, i64 120
  store ptr getelementptr inbounds ({ [30 x ptr], [20 x ptr], [8 x ptr] }, ptr @_ZTVN4node4heap12_GLOBAL__N_118HeapSnapshotStreamE, i64 0, i32 2, i64 2), ptr %add.ptr2, align 8
  %snapshot_ = getelementptr inbounds i8, ptr %this, i64 128
  %0 = load ptr, ptr %snapshot_, align 8
  %cmp.not.i = icmp eq ptr %0, null
  br i1 %cmp.not.i, label %_ZNSt10unique_ptrIKN2v812HeapSnapshotEN4node15FunctionDeleterIS2_XadL_ZNS3_4heap18DeleteHeapSnapshotEPS2_EEEEED2Ev.exit, label %if.then.i

if.then.i:                                        ; preds = %entry
  tail call void @_ZN2v812HeapSnapshot6DeleteEv(ptr noundef nonnull align 1 dereferenceable(1) %0) #22
  br label %_ZNSt10unique_ptrIKN2v812HeapSnapshotEN4node15FunctionDeleterIS2_XadL_ZNS3_4heap18DeleteHeapSnapshotEPS2_EEEEED2Ev.exit

_ZNSt10unique_ptrIKN2v812HeapSnapshotEN4node15FunctionDeleterIS2_XadL_ZNS3_4heap18DeleteHeapSnapshotEPS2_EEEEED2Ev.exit: ; preds = %entry, %if.then.i
  store ptr null, ptr %snapshot_, align 8
  store ptr getelementptr inbounds ({ [20 x ptr] }, ptr @_ZTVN4node10StreamBaseE, i64 0, i32 0, i64 2), ptr %add.ptr, align 8
  %default_listener_.i = getelementptr inbounds i8, ptr %this, i64 96
  tail call void @_ZN4node14StreamListenerD2Ev(ptr noundef nonnull align 8 dereferenceable(24) %default_listener_.i) #22
  tail call void @_ZN4node14StreamResourceD2Ev(ptr noundef nonnull align 8 dereferenceable(32) %add.ptr) #22
  tail call void @_ZN4node9AsyncWrapD2Ev(ptr noundef nonnull align 8 dereferenceable(56) %this) #22
  ret void
}